; ModuleID = '21/1944.c'
source_filename = "21/1944.c"
target datalayout = "e-m:e-p270:32:32-p271:32:32-p272:64:64-i64:64-f80:128-n8:16:32:64-S128"
target triple = "x86_64-pc-linux-gnu"

@.str = private unnamed_addr constant [3 x i8] c"%d\00", align 1
@.str.1 = private unnamed_addr constant [4 x i8] c",%d\00", align 1

; Function Attrs: noinline nounwind uwtable
define dso_local void @main() #0 {
  %1 = alloca i32, align 4
  %2 = alloca i32, align 4
  %3 = alloca [300 x i32], align 16
  %4 = alloca i32, align 4
  %5 = alloca i32, align 4
  %6 = alloca double, align 8
  %7 = alloca double, align 8
  store i32 0, i32* %4, align 4
  store i32 0, i32* %5, align 4
  store double 0.000000e+00, double* %7, align 8
  %8 = call i32 (i8*, ...) @__isoc99_scanf(i8* getelementptr inbounds ([3 x i8], [3 x i8]* @.str, i64 0, i64 0), i32* %2)
  store i32 0, i32* %1, align 4
  br label %9

9:                                                ; preds = %24, %0
  %10 = load i32, i32* %1, align 4
  %11 = load i32, i32* %2, align 4
  %12 = icmp slt i32 %10, %11
  br i1 %12, label %13, label %27

13:                                               ; preds = %9
  %14 = load i32, i32* %1, align 4
  %15 = sext i32 %14 to i64
  %16 = getelementptr inbounds [300 x i32], [300 x i32]* %3, i64 0, i64 %15
  %17 = call i32 (i8*, ...) @__isoc99_scanf(i8* getelementptr inbounds ([3 x i8], [3 x i8]* @.str, i64 0, i64 0), i32* %16)
  %18 = load i32, i32* %4, align 4
  %19 = load i32, i32* %1, align 4
  %20 = sext i32 %19 to i64
  %21 = getelementptr inbounds [300 x i32], [300 x i32]* %3, i64 0, i64 %20
  %22 = load i32, i32* %21, align 4
  %23 = add nsw i32 %18, %22
  store i32 %23, i32* %4, align 4
  br label %24

24:                                               ; preds = %13
  %25 = load i32, i32* %1, align 4
  %26 = add nsw i32 %25, 1
  store i32 %26, i32* %1, align 4
  br label %9

27:                                               ; preds = %9
  %28 = load i32, i32* %4, align 4
  %29 = sitofp i32 %28 to double
  %30 = load i32, i32* %2, align 4
  %31 = sitofp i32 %30 to double
  %32 = fdiv double %29, %31
  store double %32, double* %6, align 8
  store i32 0, i32* %1, align 4
  br label %33

33:                                               ; preds = %61, %27
  %34 = load i32, i32* %1, align 4
  %35 = load i32, i32* %2, align 4
  %36 = icmp slt i32 %34, %35
  br i1 %36, label %37, label %64

37:                                               ; preds = %33
  %38 = load i32, i32* %1, align 4
  %39 = sext i32 %38 to i64
  %40 = getelementptr inbounds [300 x i32], [300 x i32]* %3, i64 0, i64 %39
  %41 = load i32, i32* %40, align 4
  %42 = sitofp i32 %41 to double
  %43 = load double, double* %6, align 8
  %44 = fsub double %42, %43
  %45 = call double @llvm.fabs.f64(double %44)
  %46 = load double, double* %7, align 8
  %47 = fcmp ogt double %45, %46
  br i1 %47, label %48, label %57

48:                                               ; preds = %37
  %49 = load i32, i32* %1, align 4
  %50 = sext i32 %49 to i64
  %51 = getelementptr inbounds [300 x i32], [300 x i32]* %3, i64 0, i64 %50
  %52 = load i32, i32* %51, align 4
  %53 = sitofp i32 %52 to double
  %54 = load double, double* %6, align 8
  %55 = fsub double %53, %54
  %56 = call double @llvm.fabs.f64(double %55)
  br label %59

57:                                               ; preds = %37
  %58 = load double, double* %7, align 8
  br label %59

59:                                               ; preds = %57, %48
  %60 = phi double [ %56, %48 ], [ %58, %57 ]
  store double %60, double* %7, align 8
  br label %61

61:                                               ; preds = %59
  %62 = load i32, i32* %1, align 4
  %63 = add nsw i32 %62, 1
  store i32 %63, i32* %1, align 4
  br label %33

64:                                               ; preds = %33
  store i32 0, i32* %1, align 4
  br label %65

65:                                               ; preds = %112, %64
  %66 = load i32, i32* %1, align 4
  %67 = load i32, i32* %2, align 4
  %68 = icmp slt i32 %66, %67
  br i1 %68, label %69, label %115

69:                                               ; preds = %65
  %70 = load i32, i32* %1, align 4
  %71 = sext i32 %70 to i64
  %72 = getelementptr inbounds [300 x i32], [300 x i32]* %3, i64 0, i64 %71
  %73 = load i32, i32* %72, align 4
  %74 = sitofp i32 %73 to double
  %75 = load double, double* %6, align 8
  %76 = fsub double %74, %75
  %77 = call double @llvm.fabs.f64(double %76)
  %78 = load double, double* %7, align 8
  %79 = fsub double %77, %78
  %80 = call double @llvm.fabs.f64(double %79)
  %81 = fcmp ole double %80, 1.000000e-05
  br i1 %81, label %82, label %91

82:                                               ; preds = %69
  %83 = load i32, i32* %5, align 4
  %84 = icmp eq i32 %83, 0
  br i1 %84, label %85, label %91

85:                                               ; preds = %82
  %86 = load i32, i32* %1, align 4
  %87 = sext i32 %86 to i64
  %88 = getelementptr inbounds [300 x i32], [300 x i32]* %3, i64 0, i64 %87
  %89 = load i32, i32* %88, align 4
  %90 = call i32 (i8*, ...) @printf(i8* getelementptr inbounds ([3 x i8], [3 x i8]* @.str, i64 0, i64 0), i32 %89)
  store i32 1, i32* %5, align 4
  br label %111

91:                                               ; preds = %82, %69
  %92 = load i32, i32* %1, align 4
  %93 = sext i32 %92 to i64
  %94 = getelementptr inbounds [300 x i32], [300 x i32]* %3, i64 0, i64 %93
  %95 = load i32, i32* %94, align 4
  %96 = sitofp i32 %95 to double
  %97 = load double, double* %6, align 8
  %98 = fsub double %96, %97
  %99 = call double @llvm.fabs.f64(double %98)
  %100 = load double, double* %7, align 8
  %101 = fsub double %99, %100
  %102 = call double @llvm.fabs.f64(double %101)
  %103 = fcmp ole double %102, 1.000000e-05
  br i1 %103, label %104, label %110

104:                                              ; preds = %91
  %105 = load i32, i32* %1, align 4
  %106 = sext i32 %105 to i64
  %107 = getelementptr inbounds [300 x i32], [300 x i32]* %3, i64 0, i64 %106
  %108 = load i32, i32* %107, align 4
  %109 = call i32 (i8*, ...) @printf(i8* getelementptr inbounds ([4 x i8], [4 x i8]* @.str.1, i64 0, i64 0), i32 %108)
  br label %110

110:                                              ; preds = %104, %91
  br label %111

111:                                              ; preds = %110, %85
  br label %112

112:                                              ; preds = %111
  %113 = load i32, i32* %1, align 4
  %114 = add nsw i32 %113, 1
  store i32 %114, i32* %1, align 4
  br label %65

115:                                              ; preds = %65
  ret void
}

declare dso_local i32 @__isoc99_scanf(i8*, ...) #1

; Function Attrs: nounwind readnone speculatable willreturn
declare double @llvm.fabs.f64(double) #2

declare dso_local i32 @printf(i8*, ...) #1


!llvm.module.flags = !{!0}
!llvm.ident = !{!1}

!0 = !{i32 1, !"wchar_size", i32 4}
!1 = !{!"clang version 10.0.0-4ubuntu1 "}
